target datalayout = "e-m:e-p270:32:32-p271:32:32-p272:64:64-i64:64-i128:128-f80:128-n8:16:32:64-S128"
target triple = "x86_64-pc-linux-gnu"

%struct.CbsP_Par_t_ = type { i32, i32, i32, i32, i32, i32, i32, i32, i32, i32, i32, i32, i32, i32, i32, i32, i32, i32, i32, i32, i32, i32, i32, i32, i64, i64, i64, i64, i64, i64, i64, i64, i64, i32, i32, i32 }
%struct.CbsP_Man_t_ = type { %struct.CbsP_Par_t_, ptr, %struct.CbsP_Que_t_, %struct.CbsP_Que_t_, %struct.CbsP_Que_t_, ptr, ptr, ptr, ptr, ptr, i32, i32, i32, i32, i32, i32, i32, i64, i64, i64, i64 }
%struct.CbsP_Que_t_ = type { i32, i32, i32, ptr }
%struct.Vec_Int_t_ = type { i32, i32, ptr }
%struct.Vec_Ptr_t_ = type { i32, i32, ptr }
%struct.Gia_Man_t_ = type { ptr, ptr, i32, i32, i32, i32, ptr, ptr, i32, i32, i32, ptr, ptr, %struct.Vec_Int_t_, %struct.Vec_Int_t_, i32, i32, i32, %struct.Vec_Int_t_, ptr, ptr, ptr, i32, i32, i32, i32, ptr, ptr, ptr, ptr, ptr, i32, i32, ptr, i32, ptr, ptr, ptr, ptr, ptr, ptr, ptr, ptr, ptr, ptr, ptr, ptr, ptr, ptr, ptr, ptr, ptr, ptr, %struct.Vec_Int_t_, %struct.Vec_Int_t_, ptr, ptr, ptr, ptr, ptr, ptr, ptr, ptr, ptr, ptr, ptr, ptr, ptr, ptr, ptr, ptr, ptr, ptr, ptr, ptr, ptr, i32, float, float, ptr, ptr, i32, ptr, ptr, ptr, ptr, ptr, ptr, ptr, ptr, ptr, ptr, ptr, ptr, ptr, ptr, ptr, i64, i64, ptr, ptr, i32, i32, i32, i32, i32, i32, i32, i32, i32, i32, i32, i32, ptr, ptr, ptr, ptr, ptr, ptr, ptr, ptr, i32, i32, i32, ptr, i32, i32, ptr, ptr, ptr, ptr, ptr, ptr, i32, i32, ptr, %struct.Vec_Int_t_, %struct.Vec_Int_t_, %struct.Vec_Int_t_, ptr, ptr, ptr, i32, i32, i32, i32, ptr, ptr, ptr, ptr, ptr }

; Function Attrs: inlinehint nounwind uwtable
define internal void @Vec_IntGrow(ptr noundef %0, i32 noundef %1) #6 {
  %3 = alloca ptr, align 8
  %4 = alloca i32, align 4
  store ptr %0, ptr %3, align 8, !tbaa !65
  store i32 %1, ptr %4, align 4, !tbaa !38
  %5 = load ptr, ptr %3, align 8, !tbaa !65
  %6 = getelementptr inbounds nuw %struct.Vec_Int_t_, ptr %5, i32 0, i32 0
  %7 = load i32, ptr %6, align 8, !tbaa !69
  %8 = load i32, ptr %4, align 4, !tbaa !38
  %9 = icmp sge i32 %7, %8
  br i1 %9, label %10, label %11

10:                                               ; preds = %2
  br label %36

11:                                               ; preds = %2
  %12 = load ptr, ptr %3, align 8, !tbaa !65
  %13 = getelementptr inbounds nuw %struct.Vec_Int_t_, ptr %12, i32 0, i32 2
  %14 = load ptr, ptr %13, align 8, !tbaa !70
  %15 = icmp ne ptr %14, null
  br i1 %15, label %16, label %24

16:                                               ; preds = %11
  %17 = load ptr, ptr %3, align 8, !tbaa !65
  %18 = getelementptr inbounds nuw %struct.Vec_Int_t_, ptr %17, i32 0, i32 2
  %19 = load ptr, ptr %18, align 8, !tbaa !70
  %20 = load i32, ptr %4, align 4, !tbaa !38
  %21 = sext i32 %20 to i64
  %22 = mul i64 4, %21
  %23 = call ptr @realloc(ptr noundef %19, i64 noundef %22) #15
  br label %29

24:                                               ; preds = %11
  %25 = load i32, ptr %4, align 4, !tbaa !38
  %26 = sext i32 %25 to i64
  %27 = mul i64 4, %26
  %28 = call noalias ptr @malloc(i64 noundef %27) #13
  br label %29

29:                                               ; preds = %24, %16
  %30 = phi ptr [ %23, %16 ], [ %28, %24 ]
  %31 = load ptr, ptr %3, align 8, !tbaa !65
  %32 = getelementptr inbounds nuw %struct.Vec_Int_t_, ptr %31, i32 0, i32 2
  store ptr %30, ptr %32, align 8, !tbaa !70
  %33 = load i32, ptr %4, align 4, !tbaa !38
  %34 = load ptr, ptr %3, align 8, !tbaa !65
  %35 = getelementptr inbounds nuw %struct.Vec_Int_t_, ptr %34, i32 0, i32 0
  store i32 %33, ptr %35, align 8, !tbaa !69
  br label %36

36:                                               ; preds = %29, %10
  ret void
}

; Function Attrs: nounwind uwtable
define void @CbsP_SetDefaultParams(ptr noundef %0) #0 {
  %2 = alloca ptr, align 8
  store ptr %0, ptr %2, align 8, !tbaa !3
  %3 = load ptr, ptr %2, align 8, !tbaa !3
  call void @llvm.memset.p0.i64(ptr align 8 %3, i8 0, i64 184, i1 false)
  %4 = load ptr, ptr %2, align 8, !tbaa !3
  %5 = getelementptr inbounds nuw %struct.CbsP_Par_t_, ptr %4, i32 0, i32 0
  store i32 1000, ptr %5, align 8, !tbaa !8
  %6 = load ptr, ptr %2, align 8, !tbaa !3
  %7 = getelementptr inbounds nuw %struct.CbsP_Par_t_, ptr %6, i32 0, i32 1
  store i32 100, ptr %7, align 4, !tbaa !12
  %8 = load ptr, ptr %2, align 8, !tbaa !3
  %9 = getelementptr inbounds nuw %struct.CbsP_Par_t_, ptr %8, i32 0, i32 7
  store i32 1, ptr %9, align 4, !tbaa !13
  %10 = load ptr, ptr %2, align 8, !tbaa !3
  %11 = getelementptr inbounds nuw %struct.CbsP_Par_t_, ptr %10, i32 0, i32 8
  store i32 0, ptr %11, align 8, !tbaa !14
  %12 = load ptr, ptr %2, align 8, !tbaa !3
  %13 = getelementptr inbounds nuw %struct.CbsP_Par_t_, ptr %12, i32 0, i32 9
  store i32 0, ptr %13, align 4, !tbaa !15
  %14 = load ptr, ptr %2, align 8, !tbaa !3
  %15 = getelementptr inbounds nuw %struct.CbsP_Par_t_, ptr %14, i32 0, i32 10
  store i32 1, ptr %15, align 8, !tbaa !16
  %16 = load ptr, ptr %2, align 8, !tbaa !3
  %17 = getelementptr inbounds nuw %struct.CbsP_Par_t_, ptr %16, i32 0, i32 11
  store i32 1, ptr %17, align 4, !tbaa !17
  %18 = load ptr, ptr %2, align 8, !tbaa !3
  %19 = getelementptr inbounds nuw %struct.CbsP_Par_t_, ptr %18, i32 0, i32 12
  store i32 0, ptr %19, align 8, !tbaa !18
  %20 = load ptr, ptr %2, align 8, !tbaa !3
  %21 = getelementptr inbounds nuw %struct.CbsP_Par_t_, ptr %20, i32 0, i32 13
  store i32 0, ptr %21, align 4, !tbaa !19
  %22 = load ptr, ptr %2, align 8, !tbaa !3
  %23 = getelementptr inbounds nuw %struct.CbsP_Par_t_, ptr %22, i32 0, i32 15
  store i32 0, ptr %23, align 4, !tbaa !20
  %24 = load ptr, ptr %2, align 8, !tbaa !3
  %25 = getelementptr inbounds nuw %struct.CbsP_Par_t_, ptr %24, i32 0, i32 16
  store i32 0, ptr %25, align 8, !tbaa !21
  %26 = load ptr, ptr %2, align 8, !tbaa !3
  %27 = getelementptr inbounds nuw %struct.CbsP_Par_t_, ptr %26, i32 0, i32 18
  store i32 0, ptr %27, align 8, !tbaa !22
  %28 = load ptr, ptr %2, align 8, !tbaa !3
  %29 = getelementptr inbounds nuw %struct.CbsP_Par_t_, ptr %28, i32 0, i32 19
  store i32 0, ptr %29, align 4, !tbaa !23
  %30 = load ptr, ptr %2, align 8, !tbaa !3
  %31 = getelementptr inbounds nuw %struct.CbsP_Par_t_, ptr %30, i32 0, i32 24
  store i64 0, ptr %31, align 8, !tbaa !24
  %32 = load ptr, ptr %2, align 8, !tbaa !3
  %33 = getelementptr inbounds nuw %struct.CbsP_Par_t_, ptr %32, i32 0, i32 25
  store i64 0, ptr %33, align 8, !tbaa !25
  %34 = load ptr, ptr %2, align 8, !tbaa !3
  %35 = getelementptr inbounds nuw %struct.CbsP_Par_t_, ptr %34, i32 0, i32 26
  store i64 0, ptr %35, align 8, !tbaa !26
  %36 = load ptr, ptr %2, align 8, !tbaa !3
  %37 = getelementptr inbounds nuw %struct.CbsP_Par_t_, ptr %36, i32 0, i32 27
  store i64 0, ptr %37, align 8, !tbaa !27
  %38 = load ptr, ptr %2, align 8, !tbaa !3
  %39 = getelementptr inbounds nuw %struct.CbsP_Par_t_, ptr %38, i32 0, i32 28
  store i64 0, ptr %39, align 8, !tbaa !28
  %40 = load ptr, ptr %2, align 8, !tbaa !3
  %41 = getelementptr inbounds nuw %struct.CbsP_Par_t_, ptr %40, i32 0, i32 29
  store i64 0, ptr %41, align 8, !tbaa !29
  %42 = load ptr, ptr %2, align 8, !tbaa !3
  %43 = getelementptr inbounds nuw %struct.CbsP_Par_t_, ptr %42, i32 0, i32 21
  store i32 0, ptr %43, align 4, !tbaa !30
  %44 = load ptr, ptr %2, align 8, !tbaa !3
  %45 = getelementptr inbounds nuw %struct.CbsP_Par_t_, ptr %44, i32 0, i32 22
  store i32 0, ptr %45, align 8, !tbaa !31
  %46 = load ptr, ptr %2, align 8, !tbaa !3
  %47 = getelementptr inbounds nuw %struct.CbsP_Par_t_, ptr %46, i32 0, i32 23
  store i32 0, ptr %47, align 4, !tbaa !32
  %48 = load ptr, ptr %2, align 8, !tbaa !3
  %49 = getelementptr inbounds nuw %struct.CbsP_Par_t_, ptr %48, i32 0, i32 33
  store i32 100, ptr %49, align 8, !tbaa !33
  %50 = load ptr, ptr %2, align 8, !tbaa !3
  %51 = getelementptr inbounds nuw %struct.CbsP_Par_t_, ptr %50, i32 0, i32 34
  store i32 100, ptr %51, align 4, !tbaa !34
  %52 = load ptr, ptr %2, align 8, !tbaa !3
  %53 = getelementptr inbounds nuw %struct.CbsP_Par_t_, ptr %52, i32 0, i32 35
  store i32 500, ptr %53, align 8, !tbaa !35
  ret void
}

; Function Attrs: inlinehint nounwind uwtable
define internal void @Vec_IntFill(ptr noundef %0, i32 noundef %1, i32 noundef %2) #6 {
  %4 = alloca ptr, align 8
  %5 = alloca i32, align 4
  %6 = alloca i32, align 4
  %7 = alloca i32, align 4
  store ptr %0, ptr %4, align 8, !tbaa !65
  store i32 %1, ptr %5, align 4, !tbaa !38
  store i32 %2, ptr %6, align 4, !tbaa !38
  call void @llvm.lifetime.start.p0(i64 4, ptr %7) #11
  %8 = load ptr, ptr %4, align 8, !tbaa !65
  %9 = load i32, ptr %5, align 4, !tbaa !38
  call void @Vec_IntGrow(ptr noundef %8, i32 noundef %9)
  store i32 0, ptr %7, align 4, !tbaa !38
  br label %10

10:                                               ; preds = %22, %3
  %11 = load i32, ptr %7, align 4, !tbaa !38
  %12 = load i32, ptr %5, align 4, !tbaa !38
  %13 = icmp slt i32 %11, %12
  br i1 %13, label %14, label %25

14:                                               ; preds = %10
  %15 = load i32, ptr %6, align 4, !tbaa !38
  %16 = load ptr, ptr %4, align 8, !tbaa !65
  %17 = getelementptr inbounds nuw %struct.Vec_Int_t_, ptr %16, i32 0, i32 2
  %18 = load ptr, ptr %17, align 8, !tbaa !70
  %19 = load i32, ptr %7, align 4, !tbaa !38
  %20 = sext i32 %19 to i64
  %21 = getelementptr inbounds i32, ptr %18, i64 %20
  store i32 %15, ptr %21, align 4, !tbaa !38
  br label %22

22:                                               ; preds = %14
  %23 = load i32, ptr %7, align 4, !tbaa !38
  %24 = add nsw i32 %23, 1
  store i32 %24, ptr %7, align 4, !tbaa !38
  br label %10, !llvm.loop !91

25:                                               ; preds = %10
  %26 = load i32, ptr %5, align 4, !tbaa !38
  %27 = load ptr, ptr %4, align 8, !tbaa !65
  %28 = getelementptr inbounds nuw %struct.Vec_Int_t_, ptr %27, i32 0, i32 1
  store i32 %26, ptr %28, align 4, !tbaa !66
  call void @llvm.lifetime.end.p0(i64 4, ptr %7) #11
  ret void
}

; Function Attrs: inlinehint nounwind uwtable
define internal i32 @Gia_ManObjNum(ptr noundef %0) #6 {
  %2 = alloca ptr, align 8
  store ptr %0, ptr %2, align 8, !tbaa !51
  %3 = load ptr, ptr %2, align 8, !tbaa !51
  %4 = getelementptr inbounds nuw %struct.Gia_Man_t_, ptr %3, i32 0, i32 4
  %5 = load i32, ptr %4, align 8, !tbaa !76
  ret i32 %5
}

; Function Attrs: inlinehint nounwind uwtable
define internal ptr @Vec_PtrAlloc(i32 noundef %0) #6 {
  %2 = alloca i32, align 4
  %3 = alloca ptr, align 8
  store i32 %0, ptr %2, align 4, !tbaa !38
  call void @llvm.lifetime.start.p0(i64 8, ptr %3) #11
  %4 = call noalias ptr @malloc(i64 noundef 16) #13
  store ptr %4, ptr %3, align 8, !tbaa !71
  %5 = load i32, ptr %2, align 4, !tbaa !38
  %6 = icmp sgt i32 %5, 0
  br i1 %6, label %7, label %11

7:                                                ; preds = %1
  %8 = load i32, ptr %2, align 4, !tbaa !38
  %9 = icmp slt i32 %8, 8
  br i1 %9, label %10, label %11

10:                                               ; preds = %7
  store i32 8, ptr %2, align 4, !tbaa !38
  br label %11

11:                                               ; preds = %10, %7, %1
  %12 = load ptr, ptr %3, align 8, !tbaa !71
  %13 = getelementptr inbounds nuw %struct.Vec_Ptr_t_, ptr %12, i32 0, i32 1
  store i32 0, ptr %13, align 4, !tbaa !72
  %14 = load i32, ptr %2, align 4, !tbaa !38
  %15 = load ptr, ptr %3, align 8, !tbaa !71
  %16 = getelementptr inbounds nuw %struct.Vec_Ptr_t_, ptr %15, i32 0, i32 0
  store i32 %14, ptr %16, align 8, !tbaa !74
  %17 = load ptr, ptr %3, align 8, !tbaa !71
  %18 = getelementptr inbounds nuw %struct.Vec_Ptr_t_, ptr %17, i32 0, i32 0
  %19 = load i32, ptr %18, align 8, !tbaa !74
  %20 = icmp ne i32 %19, 0
  br i1 %20, label %21, label %28

21:                                               ; preds = %11
  %22 = load ptr, ptr %3, align 8, !tbaa !71
  %23 = getelementptr inbounds nuw %struct.Vec_Ptr_t_, ptr %22, i32 0, i32 0
  %24 = load i32, ptr %23, align 8, !tbaa !74
  %25 = sext i32 %24 to i64
  %26 = mul i64 8, %25
  %27 = call noalias ptr @malloc(i64 noundef %26) #13
  br label %29

28:                                               ; preds = %11
  br label %29

29:                                               ; preds = %28, %21
  %30 = phi ptr [ %27, %21 ], [ null, %28 ]
  %31 = load ptr, ptr %3, align 8, !tbaa !71
  %32 = getelementptr inbounds nuw %struct.Vec_Ptr_t_, ptr %31, i32 0, i32 2
  store ptr %30, ptr %32, align 8, !tbaa !75
  %33 = load ptr, ptr %3, align 8, !tbaa !71
  call void @llvm.lifetime.end.p0(i64 8, ptr %3) #11
  ret ptr %33
}

; Function Attrs: inlinehint nounwind uwtable
define internal ptr @Vec_IntAlloc(i32 noundef %0) #6 {
  %2 = alloca i32, align 4
  %3 = alloca ptr, align 8
  store i32 %0, ptr %2, align 4, !tbaa !38
  call void @llvm.lifetime.start.p0(i64 8, ptr %3) #11
  %4 = call noalias ptr @malloc(i64 noundef 16) #13
  store ptr %4, ptr %3, align 8, !tbaa !65
  %5 = load i32, ptr %2, align 4, !tbaa !38
  %6 = icmp sgt i32 %5, 0
  br i1 %6, label %7, label %11

7:                                                ; preds = %1
  %8 = load i32, ptr %2, align 4, !tbaa !38
  %9 = icmp slt i32 %8, 16
  br i1 %9, label %10, label %11

10:                                               ; preds = %7
  store i32 16, ptr %2, align 4, !tbaa !38
  br label %11

11:                                               ; preds = %10, %7, %1
  %12 = load ptr, ptr %3, align 8, !tbaa !65
  %13 = getelementptr inbounds nuw %struct.Vec_Int_t_, ptr %12, i32 0, i32 1
  store i32 0, ptr %13, align 4, !tbaa !66
  %14 = load i32, ptr %2, align 4, !tbaa !38
  %15 = load ptr, ptr %3, align 8, !tbaa !65
  %16 = getelementptr inbounds nuw %struct.Vec_Int_t_, ptr %15, i32 0, i32 0
  store i32 %14, ptr %16, align 8, !tbaa !69
  %17 = load ptr, ptr %3, align 8, !tbaa !65
  %18 = getelementptr inbounds nuw %struct.Vec_Int_t_, ptr %17, i32 0, i32 0
  %19 = load i32, ptr %18, align 8, !tbaa !69
  %20 = icmp ne i32 %19, 0
  br i1 %20, label %21, label %28

21:                                               ; preds = %11
  %22 = load ptr, ptr %3, align 8, !tbaa !65
  %23 = getelementptr inbounds nuw %struct.Vec_Int_t_, ptr %22, i32 0, i32 0
  %24 = load i32, ptr %23, align 8, !tbaa !69
  %25 = sext i32 %24 to i64
  %26 = mul i64 4, %25
  %27 = call noalias ptr @malloc(i64 noundef %26) #13
  br label %29

28:                                               ; preds = %11
  br label %29

29:                                               ; preds = %28, %21
  %30 = phi ptr [ %27, %21 ], [ null, %28 ]
  %31 = load ptr, ptr %3, align 8, !tbaa !65
  %32 = getelementptr inbounds nuw %struct.Vec_Int_t_, ptr %31, i32 0, i32 2
  store ptr %30, ptr %32, align 8, !tbaa !70
  %33 = load ptr, ptr %3, align 8, !tbaa !65
  call void @llvm.lifetime.end.p0(i64 8, ptr %3) #11
  ret ptr %33
}

; Function Attrs: nounwind uwtable
define ptr @CbsP_ManAlloc(ptr noundef %0) #0 {
  %2 = alloca ptr, align 8
  %3 = alloca ptr, align 8
  store ptr %0, ptr %2, align 8, !tbaa !51
  call void @llvm.lifetime.start.p0(i64 8, ptr %3) #11
  %4 = call noalias ptr @calloc(i64 noundef 1, i64 noundef 368) #12
  store ptr %4, ptr %3, align 8, !tbaa !36
  %5 = load ptr, ptr %3, align 8, !tbaa !36
  %6 = getelementptr inbounds nuw %struct.CbsP_Man_t_, ptr %5, i32 0, i32 4
  %7 = getelementptr inbounds nuw %struct.CbsP_Que_t_, ptr %6, i32 0, i32 2
  store i32 10000, ptr %7, align 8, !tbaa !52
  %8 = load ptr, ptr %3, align 8, !tbaa !36
  %9 = getelementptr inbounds nuw %struct.CbsP_Man_t_, ptr %8, i32 0, i32 3
  %10 = getelementptr inbounds nuw %struct.CbsP_Que_t_, ptr %9, i32 0, i32 2
  store i32 10000, ptr %10, align 8, !tbaa !53
  %11 = load ptr, ptr %3, align 8, !tbaa !36
  %12 = getelementptr inbounds nuw %struct.CbsP_Man_t_, ptr %11, i32 0, i32 2
  %13 = getelementptr inbounds nuw %struct.CbsP_Que_t_, ptr %12, i32 0, i32 2
  store i32 10000, ptr %13, align 8, !tbaa !54
  %14 = load ptr, ptr %3, align 8, !tbaa !36
  %15 = getelementptr inbounds nuw %struct.CbsP_Man_t_, ptr %14, i32 0, i32 2
  %16 = getelementptr inbounds nuw %struct.CbsP_Que_t_, ptr %15, i32 0, i32 2
  %17 = load i32, ptr %16, align 8, !tbaa !54
  %18 = sext i32 %17 to i64
  %19 = mul i64 8, %18
  %20 = call noalias ptr @malloc(i64 noundef %19) #13
  %21 = load ptr, ptr %3, align 8, !tbaa !36
  %22 = getelementptr inbounds nuw %struct.CbsP_Man_t_, ptr %21, i32 0, i32 2
  %23 = getelementptr inbounds nuw %struct.CbsP_Que_t_, ptr %22, i32 0, i32 3
  store ptr %20, ptr %23, align 8, !tbaa !55
  %24 = load ptr, ptr %3, align 8, !tbaa !36
  %25 = getelementptr inbounds nuw %struct.CbsP_Man_t_, ptr %24, i32 0, i32 3
  %26 = getelementptr inbounds nuw %struct.CbsP_Que_t_, ptr %25, i32 0, i32 2
  %27 = load i32, ptr %26, align 8, !tbaa !53
  %28 = sext i32 %27 to i64
  %29 = mul i64 8, %28
  %30 = call noalias ptr @malloc(i64 noundef %29) #13
  %31 = load ptr, ptr %3, align 8, !tbaa !36
  %32 = getelementptr inbounds nuw %struct.CbsP_Man_t_, ptr %31, i32 0, i32 3
  %33 = getelementptr inbounds nuw %struct.CbsP_Que_t_, ptr %32, i32 0, i32 3
  store ptr %30, ptr %33, align 8, !tbaa !56
  %34 = load ptr, ptr %3, align 8, !tbaa !36
  %35 = getelementptr inbounds nuw %struct.CbsP_Man_t_, ptr %34, i32 0, i32 4
  %36 = getelementptr inbounds nuw %struct.CbsP_Que_t_, ptr %35, i32 0, i32 2
  %37 = load i32, ptr %36, align 8, !tbaa !52
  %38 = sext i32 %37 to i64
  %39 = mul i64 8, %38
  %40 = call noalias ptr @malloc(i64 noundef %39) #13
  %41 = load ptr, ptr %3, align 8, !tbaa !36
  %42 = getelementptr inbounds nuw %struct.CbsP_Man_t_, ptr %41, i32 0, i32 4
  %43 = getelementptr inbounds nuw %struct.CbsP_Que_t_, ptr %42, i32 0, i32 3
  store ptr %40, ptr %43, align 8, !tbaa !57
  %44 = load ptr, ptr %3, align 8, !tbaa !36
  %45 = getelementptr inbounds nuw %struct.CbsP_Man_t_, ptr %44, i32 0, i32 4
  %46 = getelementptr inbounds nuw %struct.CbsP_Que_t_, ptr %45, i32 0, i32 1
  store i32 1, ptr %46, align 4, !tbaa !58
  %47 = load ptr, ptr %3, align 8, !tbaa !36
  %48 = getelementptr inbounds nuw %struct.CbsP_Man_t_, ptr %47, i32 0, i32 4
  %49 = getelementptr inbounds nuw %struct.CbsP_Que_t_, ptr %48, i32 0, i32 0
  store i32 1, ptr %49, align 8, !tbaa !59
  %50 = call ptr @Vec_IntAlloc(i32 noundef 1000)
  %51 = load ptr, ptr %3, align 8, !tbaa !36
  %52 = getelementptr inbounds nuw %struct.CbsP_Man_t_, ptr %51, i32 0, i32 8
  store ptr %50, ptr %52, align 8, !tbaa !60
  %53 = call ptr @Vec_IntAlloc(i32 noundef 1000)
  %54 = load ptr, ptr %3, align 8, !tbaa !36
  %55 = getelementptr inbounds nuw %struct.CbsP_Man_t_, ptr %54, i32 0, i32 6
  store ptr %53, ptr %55, align 8, !tbaa !61
  %56 = call ptr @Vec_PtrAlloc(i32 noundef 1000)
  %57 = load ptr, ptr %3, align 8, !tbaa !36
  %58 = getelementptr inbounds nuw %struct.CbsP_Man_t_, ptr %57, i32 0, i32 9
  store ptr %56, ptr %58, align 8, !tbaa !62
  %59 = load ptr, ptr %2, align 8, !tbaa !51
  %60 = load ptr, ptr %3, align 8, !tbaa !36
  %61 = getelementptr inbounds nuw %struct.CbsP_Man_t_, ptr %60, i32 0, i32 1
  store ptr %59, ptr %61, align 8, !tbaa !63
  %62 = load ptr, ptr %2, align 8, !tbaa !51
  %63 = call i32 @Gia_ManObjNum(ptr noundef %62)
  %64 = call ptr @Vec_IntAlloc(i32 noundef %63)
  %65 = load ptr, ptr %3, align 8, !tbaa !36
  %66 = getelementptr inbounds nuw %struct.CbsP_Man_t_, ptr %65, i32 0, i32 7
  store ptr %64, ptr %66, align 8, !tbaa !64
  %67 = load ptr, ptr %3, align 8, !tbaa !36
  %68 = getelementptr inbounds nuw %struct.CbsP_Man_t_, ptr %67, i32 0, i32 7
  %69 = load ptr, ptr %68, align 8, !tbaa !64
  %70 = load ptr, ptr %2, align 8, !tbaa !51
  %71 = call i32 @Gia_ManObjNum(ptr noundef %70)
  call void @Vec_IntFill(ptr noundef %69, i32 noundef %71, i32 noundef -1)
  %72 = load ptr, ptr %3, align 8, !tbaa !36
  %73 = getelementptr inbounds nuw %struct.CbsP_Man_t_, ptr %72, i32 0, i32 0
  call void @CbsP_SetDefaultParams(ptr noundef %73)
  %74 = load ptr, ptr %3, align 8, !tbaa !36
  call void @llvm.lifetime.end.p0(i64 8, ptr %3) #11
  ret ptr %74
}