; Function Attrs: mustprogress nounwind willreturn uwtable
define noalias noundef ptr @CbsP_ManAlloc(ptr noundef %0) local_unnamed_addr #4 {
  %2 = tail call noalias dereferenceable_or_null(368) ptr @calloc(i64 noundef 1, i64 noundef 368) #23
  %3 = getelementptr inbounds nuw i8, ptr %2, i64 240
  %4 = getelementptr inbounds nuw i8, ptr %2, i64 248
  store i32 10000, ptr %4, align 8, !tbaa !44
  %5 = getelementptr inbounds nuw i8, ptr %2, i64 224
  store i32 10000, ptr %5, align 8, !tbaa !45
  %6 = getelementptr inbounds nuw i8, ptr %2, i64 200
  store i32 10000, ptr %6, align 8, !tbaa !46
  %7 = tail call noalias dereferenceable_or_null(80000) ptr @malloc(i64 noundef 80000) #24
  %8 = getelementptr inbounds nuw i8, ptr %2, i64 208
  store ptr %7, ptr %8, align 8, !tbaa !47
  %9 = tail call noalias dereferenceable_or_null(80000) ptr @malloc(i64 noundef 80000) #24
  %10 = getelementptr inbounds nuw i8, ptr %2, i64 232
  store ptr %9, ptr %10, align 8, !tbaa !48
  %11 = tail call noalias dereferenceable_or_null(80000) ptr @malloc(i64 noundef 80000) #24
  %12 = getelementptr inbounds nuw i8, ptr %2, i64 256
  store ptr %11, ptr %12, align 8, !tbaa !49
  %13 = getelementptr inbounds nuw i8, ptr %2, i64 244
  store i32 1, ptr %13, align 4, !tbaa !50
  store i32 1, ptr %3, align 8, !tbaa !51
  %14 = tail call noalias dereferenceable_or_null(16) ptr @malloc(i64 noundef 16) #24
  %15 = getelementptr inbounds nuw i8, ptr %14, i64 4
  store i32 0, ptr %15, align 4, !tbaa !52
  store i32 1000, ptr %14, align 8, !tbaa !55
  %16 = tail call noalias dereferenceable_or_null(4000) ptr @malloc(i64 noundef 4000) #24
  %17 = getelementptr inbounds nuw i8, ptr %14, i64 8
  store ptr %16, ptr %17, align 8, !tbaa !56
  %18 = getelementptr inbounds nuw i8, ptr %2, i64 288
  store ptr %14, ptr %18, align 8, !tbaa !57
  %19 = tail call noalias dereferenceable_or_null(16) ptr @malloc(i64 noundef 16) #24
  %20 = getelementptr inbounds nuw i8, ptr %19, i64 4
  store i32 0, ptr %20, align 4, !tbaa !52
  store i32 1000, ptr %19, align 8, !tbaa !55
  %21 = tail call noalias dereferenceable_or_null(4000) ptr @malloc(i64 noundef 4000) #24
  %22 = getelementptr inbounds nuw i8, ptr %19, i64 8
  store ptr %21, ptr %22, align 8, !tbaa !56
  %23 = getelementptr inbounds nuw i8, ptr %2, i64 272
  store ptr %19, ptr %23, align 8, !tbaa !58
  %24 = tail call noalias dereferenceable_or_null(16) ptr @malloc(i64 noundef 16) #24
  %25 = getelementptr inbounds nuw i8, ptr %24, i64 4
  store i32 0, ptr %25, align 4, !tbaa !59
  store i32 1000, ptr %24, align 8, !tbaa !61
  %26 = tail call noalias dereferenceable_or_null(8000) ptr @malloc(i64 noundef 8000) #24
  %27 = getelementptr inbounds nuw i8, ptr %24, i64 8
  store ptr %26, ptr %27, align 8, !tbaa !62
  %28 = getelementptr inbounds nuw i8, ptr %2, i64 296
  store ptr %24, ptr %28, align 8, !tbaa !63
  %29 = getelementptr inbounds nuw i8, ptr %2, i64 184
  store ptr %0, ptr %29, align 8, !tbaa !64
  %30 = getelementptr i8, ptr %0, i64 24
  %.val = load i32, ptr %30, align 8, !tbaa !65
  %31 = tail call noalias dereferenceable_or_null(16) ptr @malloc(i64 noundef 16) #24
  %32 = add i32 %.val, -1
  %or.cond.i = icmp ult i32 %32, 15
  %spec.store.select.i = select i1 %or.cond.i, i32 16, i32 %.val
  store i32 %spec.store.select.i, ptr %31, align 8, !tbaa !55
  %.not.i = icmp eq i32 %spec.store.select.i, 0
  br i1 %.not.i, label %Vec_IntAlloc.exit.thread, label %Vec_IntAlloc.exit

Vec_IntAlloc.exit:                                ; preds = %1
  %33 = sext i32 %spec.store.select.i to i64
  %34 = shl nsw i64 %33, 2
  %35 = tail call noalias ptr @malloc(i64 noundef %34) #24
  %36 = getelementptr inbounds nuw i8, ptr %31, i64 8
  store ptr %35, ptr %36, align 8, !tbaa !56
  %37 = getelementptr inbounds nuw i8, ptr %2, i64 280
  store ptr %31, ptr %37, align 8, !tbaa !80
  %.not.i.i = icmp slt i32 %spec.store.select.i, %.val
  br i1 %.not.i.i, label %42, label %Vec_IntGrow.exit.i

Vec_IntAlloc.exit.thread:                         ; preds = %1
  %38 = getelementptr inbounds nuw i8, ptr %31, i64 8
  store ptr null, ptr %38, align 8, !tbaa !56
  %39 = getelementptr inbounds nuw i8, ptr %2, i64 280
  store ptr %31, ptr %39, align 8, !tbaa !80
  %.not.i.i23 = icmp sgt i32 %.val, 0
  br i1 %.not.i.i23, label %.thread, label %Vec_IntFill.exit

.thread:                                          ; preds = %Vec_IntAlloc.exit.thread
  %40 = zext nneg i32 %.val to i64
  %41 = shl nuw nsw i64 %40, 2
  br label %47

42:                                               ; preds = %Vec_IntAlloc.exit
  %.not9.i.i = icmp eq ptr %35, null
  %43 = sext i32 %.val to i64
  %44 = shl nsw i64 %43, 2
  br i1 %.not9.i.i, label %47, label %45

45:                                               ; preds = %42
  %46 = tail call ptr @realloc(ptr noundef nonnull %35, i64 noundef %44) #25
  br label %51

47:                                               ; preds = %.thread, %42
  %48 = phi i64 [ %41, %.thread ], [ %44, %42 ]
  %49 = phi ptr [ %38, %.thread ], [ %36, %42 ]
  %50 = tail call noalias ptr @malloc(i64 noundef %48) #24
  br label %51

51:                                               ; preds = %47, %45
  %52 = phi ptr [ %36, %45 ], [ %49, %47 ]
  %53 = phi ptr [ %46, %45 ], [ %50, %47 ]
  store ptr %53, ptr %52, align 8, !tbaa !56
  store i32 %.val, ptr %31, align 8, !tbaa !55
  br label %Vec_IntGrow.exit.i

Vec_IntGrow.exit.i:                               ; preds = %51, %Vec_IntAlloc.exit
  %54 = phi ptr [ %53, %51 ], [ %35, %Vec_IntAlloc.exit ]
  %55 = icmp sgt i32 %.val, 0
  br i1 %55, label %.lr.ph.i, label %Vec_IntFill.exit

.lr.ph.i:                                         ; preds = %Vec_IntGrow.exit.i
  %56 = zext nneg i32 %.val to i64
  %57 = shl nuw nsw i64 %56, 2
  tail call void @llvm.memset.p0.i64(ptr align 4 %54, i8 -1, i64 %57, i1 false), !tbaa !81
  br label %Vec_IntFill.exit

Vec_IntFill.exit:                                 ; preds = %Vec_IntAlloc.exit.thread, %Vec_IntGrow.exit.i, %.lr.ph.i
  %58 = getelementptr inbounds nuw i8, ptr %31, i64 4
  store i32 %.val, ptr %58, align 4, !tbaa !52
  %59 = getelementptr inbounds nuw i8, ptr %2, i64 8
  tail call void @llvm.memset.p0.i64(ptr noundef nonnull align 8 dereferenceable(184) %59, i8 0, i64 176, i1 false)
  store i32 1000, ptr %2, align 8, !tbaa !3
  %60 = getelementptr inbounds nuw i8, ptr %2, i64 4
  store i32 100, ptr %60, align 4, !tbaa !9
  %61 = getelementptr inbounds nuw i8, ptr %2, i64 28
  store i32 1, ptr %61, align 4, !tbaa !10
  %62 = getelementptr inbounds nuw i8, ptr %2, i64 40
  store i32 1, ptr %62, align 8, !tbaa !12
  %63 = getelementptr inbounds nuw i8, ptr %2, i64 44
  store i32 1, ptr %63, align 4, !tbaa !13
  %64 = getelementptr inbounds nuw i8, ptr %2, i64 64
  store i32 0, ptr %64, align 8, !tbaa !15
  %65 = getelementptr inbounds nuw i8, ptr %2, i64 84
  %66 = getelementptr inbounds nuw i8, ptr %2, i64 168
  tail call void @llvm.memset.p0.i64(ptr noundef nonnull align 4 dereferenceable(60) %65, i8 0, i64 60, i1 false)
  store i32 100, ptr %66, align 8, !tbaa !17
  %67 = getelementptr inbounds nuw i8, ptr %2, i64 172
  store i32 100, ptr %67, align 4, !tbaa !18
  %68 = getelementptr inbounds nuw i8, ptr %2, i64 176
  store i32 500, ptr %68, align 8, !tbaa !19
  ret ptr %2
}